target datalayout = "e-m:e-p270:32:32-p271:32:32-p272:64:64-i64:64-i128:128-f80:128-n8:16:32:64-S128"
target triple = "x86_64-pc-linux-gnu"

%struct.CMS_EncryptedContentInfo_st = type { ptr, ptr, ptr, ptr, ptr, i64, ptr, i64, i32, i32 }

@.str = private unnamed_addr constant [34 x i8] c"../openssl/crypto/cms/cms_smime.c\00", align 1
@__func__.CMS_decrypt_set1_password = private unnamed_addr constant [26 x i8] c"CMS_decrypt_set1_password\00", align 1

; Function Attrs: inlinehint nounwind uwtable
define internal ptr @ossl_check_const_CMS_RecipientInfo_sk_type(ptr noundef %0) #3 {
  %2 = alloca ptr, align 8
  store ptr %0, ptr %2, align 8, !tbaa !68
  %3 = load ptr, ptr %2, align 8, !tbaa !68
  ret ptr %3
}

; Function Attrs: nounwind uwtable
define i32 @CMS_decrypt_set1_password(ptr noundef %0, ptr noundef %1, i64 noundef %2) #0 {
  %4 = alloca i32, align 4
  %5 = alloca ptr, align 8
  %6 = alloca ptr, align 8
  %7 = alloca i64, align 8
  %8 = alloca ptr, align 8
  %9 = alloca ptr, align 8
  %10 = alloca i32, align 4
  %11 = alloca i32, align 4
  %12 = alloca i32, align 4
  %13 = alloca ptr, align 8
  %14 = alloca i32, align 4
  store ptr %0, ptr %5, align 8, !tbaa !3
  store ptr %1, ptr %6, align 8, !tbaa !14
  store i64 %2, ptr %7, align 8, !tbaa !24
  call void @llvm.lifetime.start.p0(i64 8, ptr %8) #4
  %15 = load ptr, ptr %5, align 8, !tbaa !3
  %16 = call ptr @CMS_get0_RecipientInfos(ptr noundef %15)
  store ptr %16, ptr %8, align 8, !tbaa !68
  call void @llvm.lifetime.start.p0(i64 8, ptr %9) #4
  call void @llvm.lifetime.start.p0(i64 4, ptr %10) #4
  call void @llvm.lifetime.start.p0(i64 4, ptr %11) #4
  call void @llvm.lifetime.start.p0(i64 4, ptr %12) #4
  store i32 0, ptr %12, align 4, !tbaa !10
  call void @llvm.lifetime.start.p0(i64 8, ptr %13) #4
  %17 = load ptr, ptr %5, align 8, !tbaa !3
  %18 = call ptr @ossl_cms_get0_env_enc_content(ptr noundef %17)
  store ptr %18, ptr %13, align 8, !tbaa !70
  %19 = load ptr, ptr %13, align 8, !tbaa !70
  %20 = icmp ne ptr %19, null
  br i1 %20, label %21, label %32

21:                                               ; preds = %3
  %22 = load ptr, ptr %13, align 8, !tbaa !70
  %23 = getelementptr inbounds nuw %struct.CMS_EncryptedContentInfo_st, ptr %22, i32 0, i32 4
  %24 = load ptr, ptr %23, align 8, !tbaa !72
  %25 = load ptr, ptr %13, align 8, !tbaa !70
  %26 = getelementptr inbounds nuw %struct.CMS_EncryptedContentInfo_st, ptr %25, i32 0, i32 5
  %27 = load i64, ptr %26, align 8, !tbaa !74
  call void @CRYPTO_clear_free(ptr noundef %24, i64 noundef %27, ptr noundef @.str, i32 noundef 845)
  %28 = load ptr, ptr %13, align 8, !tbaa !70
  %29 = getelementptr inbounds nuw %struct.CMS_EncryptedContentInfo_st, ptr %28, i32 0, i32 4
  store ptr null, ptr %29, align 8, !tbaa !72
  %30 = load ptr, ptr %13, align 8, !tbaa !70
  %31 = getelementptr inbounds nuw %struct.CMS_EncryptedContentInfo_st, ptr %30, i32 0, i32 5
  store i64 0, ptr %31, align 8, !tbaa !74
  br label %32

32:                                               ; preds = %21, %3
  store i32 0, ptr %10, align 4, !tbaa !10
  br label %33

33:                                               ; preds = %62, %32
  %34 = load i32, ptr %10, align 4, !tbaa !10
  %35 = load ptr, ptr %8, align 8, !tbaa !68
  %36 = call ptr @ossl_check_const_CMS_RecipientInfo_sk_type(ptr noundef %35)
  %37 = call i32 @OPENSSL_sk_num(ptr noundef %36)
  %38 = icmp slt i32 %34, %37
  br i1 %38, label %39, label %65

39:                                               ; preds = %33
  %40 = load ptr, ptr %8, align 8, !tbaa !68
  %41 = call ptr @ossl_check_const_CMS_RecipientInfo_sk_type(ptr noundef %40)
  %42 = load i32, ptr %10, align 4, !tbaa !10
  %43 = call ptr @OPENSSL_sk_value(ptr noundef %41, i32 noundef %42)
  store ptr %43, ptr %9, align 8, !tbaa !76
  %44 = load ptr, ptr %9, align 8, !tbaa !76
  %45 = call i32 @CMS_RecipientInfo_type(ptr noundef %44)
  %46 = icmp ne i32 %45, 3
  br i1 %46, label %47, label %48

47:                                               ; preds = %39
  br label %62

48:                                               ; preds = %39
  store i32 1, ptr %12, align 4, !tbaa !10
  %49 = load ptr, ptr %9, align 8, !tbaa !76
  %50 = load ptr, ptr %6, align 8, !tbaa !14
  %51 = load i64, ptr %7, align 8, !tbaa !24
  %52 = call i32 @CMS_RecipientInfo_set0_password(ptr noundef %49, ptr noundef %50, i64 noundef %51)
  %53 = load ptr, ptr %5, align 8, !tbaa !3
  %54 = load ptr, ptr %9, align 8, !tbaa !76
  %55 = call i32 @CMS_RecipientInfo_decrypt(ptr noundef %53, ptr noundef %54)
  store i32 %55, ptr %11, align 4, !tbaa !10
  %56 = load ptr, ptr %9, align 8, !tbaa !76
  %57 = call i32 @CMS_RecipientInfo_set0_password(ptr noundef %56, ptr noundef null, i64 noundef 0)
  %58 = load i32, ptr %11, align 4, !tbaa !10
  %59 = icmp sgt i32 %58, 0
  br i1 %59, label %60, label %61

60:                                               ; preds = %48
  store i32 1, ptr %4, align 4
  store i32 1, ptr %14, align 4
  br label %70

61:                                               ; preds = %48
  br label %62

62:                                               ; preds = %61, %47
  %63 = load i32, ptr %10, align 4, !tbaa !10
  %64 = add nsw i32 %63, 1
  store i32 %64, ptr %10, align 4, !tbaa !10
  br label %33, !llvm.loop !85

65:                                               ; preds = %33
  %66 = load i32, ptr %12, align 4, !tbaa !10
  %67 = icmp ne i32 %66, 0
  br i1 %67, label %69, label %68

68:                                               ; preds = %65
  call void @ERR_new()
  call void @ERR_set_debug(ptr noundef @.str, i32 noundef 865, ptr noundef @__func__.CMS_decrypt_set1_password)
  call void (i32, i32, ptr, ...) @ERR_set_error(i32 noundef 46, i32 noundef 132, ptr noundef null)
  br label %69

69:                                               ; preds = %68, %65
  store i32 0, ptr %4, align 4
  store i32 1, ptr %14, align 4
  br label %70

70:                                               ; preds = %69, %60
  call void @llvm.lifetime.end.p0(i64 8, ptr %13) #4
  call void @llvm.lifetime.end.p0(i64 4, ptr %12) #4
  call void @llvm.lifetime.end.p0(i64 4, ptr %11) #4
  call void @llvm.lifetime.end.p0(i64 4, ptr %10) #4
  call void @llvm.lifetime.end.p0(i64 8, ptr %9) #4
  call void @llvm.lifetime.end.p0(i64 8, ptr %8) #4
  %71 = load i32, ptr %4, align 4
  ret i32 %71
}