; Function Attrs: nounwind uwtable
define range(i32 0, 2) i32 @CMS_decrypt_set1_password(ptr noundef %0, ptr noundef %1, i64 noundef %2) local_unnamed_addr #0 {
  %4 = tail call ptr @CMS_get0_RecipientInfos(ptr noundef %0) #4
  %5 = tail call ptr @ossl_cms_get0_env_enc_content(ptr noundef %0) #4
  %.not = icmp eq ptr %5, null
  br i1 %.not, label %11, label %6

6:                                                ; preds = %3
  %7 = getelementptr inbounds nuw i8, ptr %5, i64 32
  %8 = load ptr, ptr %7, align 8, !tbaa !39
  %9 = getelementptr inbounds nuw i8, ptr %5, i64 40
  %10 = load i64, ptr %9, align 8, !tbaa !43
  tail call void @CRYPTO_clear_free(ptr noundef %8, i64 noundef %10, ptr noundef nonnull @.str, i32 noundef 845) #4
  tail call void @llvm.memset.p0.i64(ptr noundef nonnull align 8 dereferenceable(16) %7, i8 0, i64 16, i1 false)
  br label %11

11:                                               ; preds = %6, %3
  %12 = tail call i32 @OPENSSL_sk_num(ptr noundef %4) #4
  %13 = icmp sgt i32 %12, 0
  br i1 %13, label %.lr.ph, label %._crit_edge.thread

.lr.ph:                                           ; preds = %11, %21
  %.02128 = phi i32 [ %.1, %21 ], [ 0, %11 ]
  %.02227 = phi i32 [ %22, %21 ], [ 0, %11 ]
  %14 = tail call ptr @OPENSSL_sk_value(ptr noundef %4, i32 noundef %.02227) #4
  %15 = tail call i32 @CMS_RecipientInfo_type(ptr noundef %14) #4
  %.not25 = icmp eq i32 %15, 3
  br i1 %.not25, label %16, label %21

16:                                               ; preds = %.lr.ph
  %17 = tail call i32 @CMS_RecipientInfo_set0_password(ptr noundef %14, ptr noundef %1, i64 noundef %2) #4
  %18 = tail call i32 @CMS_RecipientInfo_decrypt(ptr noundef %0, ptr noundef %14) #4
  %19 = tail call i32 @CMS_RecipientInfo_set0_password(ptr noundef %14, ptr noundef null, i64 noundef 0) #4
  %20 = icmp sgt i32 %18, 0
  br i1 %20, label %.loopexit, label %21

21:                                               ; preds = %16, %.lr.ph
  %.1 = phi i32 [ %.02128, %.lr.ph ], [ 1, %16 ]
  %22 = add nuw nsw i32 %.02227, 1
  %23 = tail call i32 @OPENSSL_sk_num(ptr noundef %4) #4
  %24 = icmp slt i32 %22, %23
  br i1 %24, label %.lr.ph, label %._crit_edge, !llvm.loop !48

._crit_edge:                                      ; preds = %21
  %25 = icmp eq i32 %.1, 0
  br i1 %25, label %._crit_edge.thread, label %.loopexit

._crit_edge.thread:                               ; preds = %11, %._crit_edge
  tail call void @ERR_new() #4
  tail call void @ERR_set_debug(ptr noundef nonnull @.str, i32 noundef 865, ptr noundef nonnull @__func__.CMS_decrypt_set1_password) #4
  tail call void (i32, i32, ptr, ...) @ERR_set_error(i32 noundef 46, i32 noundef 132, ptr noundef null) #4
  br label %.loopexit

.loopexit:                                        ; preds = %16, %._crit_edge, %._crit_edge.thread
  %.0 = phi i32 [ 0, %._crit_edge.thread ], [ 0, %._crit_edge ], [ 1, %16 ]
  ret i32 %.0
}